; ModuleID = '12/597.c'
source_filename = "12/597.c"
target datalayout = "e-m:e-p270:32:32-p271:32:32-p272:64:64-i64:64-f80:128-n8:16:32:64-S128"
target triple = "x86_64-pc-linux-gnu"

@.str = private unnamed_addr constant [3 x i8] c"%d\00", align 1
@.str.1 = private unnamed_addr constant [4 x i8] c"%d\0A\00", align 1

; Function Attrs: noinline nounwind uwtable
define dso_local i32 @main() #0 {
  %1 = alloca i32, align 4
  %2 = alloca [16 x i32], align 16
  %3 = alloca i32, align 4
  %4 = alloca i32, align 4
  %5 = alloca i32, align 4
  %6 = alloca i32, align 4
  %7 = alloca i32, align 4
  store i32 0, i32* %1, align 4
  store i32 1, i32* %7, align 4
  br label %8

8:                                                ; preds = %86, %0
  %9 = load i32, i32* %7, align 4
  %10 = icmp slt i32 %9, 3000
  br i1 %10, label %11, label %89

11:                                               ; preds = %8
  store i32 0, i32* %5, align 4
  %12 = getelementptr inbounds [16 x i32], [16 x i32]* %2, i64 0, i64 0
  %13 = call i32 (i8*, ...) @__isoc99_scanf(i8* getelementptr inbounds ([3 x i8], [3 x i8]* @.str, i64 0, i64 0), i32* %12)
  %14 = getelementptr inbounds [16 x i32], [16 x i32]* %2, i64 0, i64 0
  %15 = load i32, i32* %14, align 16
  %16 = icmp eq i32 %15, -1
  br i1 %16, label %17, label %18

17:                                               ; preds = %11
  br label %89

18:                                               ; preds = %11
  store i32 1, i32* %6, align 4
  br label %19

19:                                               ; preds = %34, %18
  %20 = load i32, i32* %6, align 4
  %21 = icmp sle i32 %20, 16
  br i1 %21, label %22, label %37

22:                                               ; preds = %19
  %23 = load i32, i32* %6, align 4
  %24 = sext i32 %23 to i64
  %25 = getelementptr inbounds [16 x i32], [16 x i32]* %2, i64 0, i64 %24
  %26 = call i32 (i8*, ...) @__isoc99_scanf(i8* getelementptr inbounds ([3 x i8], [3 x i8]* @.str, i64 0, i64 0), i32* %25)
  %27 = load i32, i32* %6, align 4
  %28 = sext i32 %27 to i64
  %29 = getelementptr inbounds [16 x i32], [16 x i32]* %2, i64 0, i64 %28
  %30 = load i32, i32* %29, align 4
  %31 = icmp eq i32 %30, 0
  br i1 %31, label %32, label %33

32:                                               ; preds = %22
  br label %37

33:                                               ; preds = %22
  br label %34

34:                                               ; preds = %33
  %35 = load i32, i32* %6, align 4
  %36 = add nsw i32 %35, 1
  store i32 %36, i32* %6, align 4
  br label %19

37:                                               ; preds = %32, %19
  store i32 0, i32* %3, align 4
  br label %38

38:                                               ; preds = %80, %37
  %39 = load i32, i32* %3, align 4
  %40 = load i32, i32* %6, align 4
  %41 = sub nsw i32 %40, 1
  %42 = icmp slt i32 %39, %41
  br i1 %42, label %43, label %83

43:                                               ; preds = %38
  %44 = load i32, i32* %3, align 4
  %45 = add nsw i32 %44, 1
  store i32 %45, i32* %4, align 4
  br label %46

46:                                               ; preds = %76, %43
  %47 = load i32, i32* %4, align 4
  %48 = load i32, i32* %6, align 4
  %49 = icmp slt i32 %47, %48
  br i1 %49, label %50, label %79

50:                                               ; preds = %46
  %51 = load i32, i32* %3, align 4
  %52 = sext i32 %51 to i64
  %53 = getelementptr inbounds [16 x i32], [16 x i32]* %2, i64 0, i64 %52
  %54 = load i32, i32* %53, align 4
  %55 = load i32, i32* %4, align 4
  %56 = sext i32 %55 to i64
  %57 = getelementptr inbounds [16 x i32], [16 x i32]* %2, i64 0, i64 %56
  %58 = load i32, i32* %57, align 4
  %59 = mul nsw i32 %58, 2
  %60 = icmp eq i32 %54, %59
  br i1 %60, label %72, label %61

61:                                               ; preds = %50
  %62 = load i32, i32* %4, align 4
  %63 = sext i32 %62 to i64
  %64 = getelementptr inbounds [16 x i32], [16 x i32]* %2, i64 0, i64 %63
  %65 = load i32, i32* %64, align 4
  %66 = load i32, i32* %3, align 4
  %67 = sext i32 %66 to i64
  %68 = getelementptr inbounds [16 x i32], [16 x i32]* %2, i64 0, i64 %67
  %69 = load i32, i32* %68, align 4
  %70 = mul nsw i32 %69, 2
  %71 = icmp eq i32 %65, %70
  br i1 %71, label %72, label %75

72:                                               ; preds = %61, %50
  %73 = load i32, i32* %5, align 4
  %74 = add nsw i32 %73, 1
  store i32 %74, i32* %5, align 4
  br label %75

75:                                               ; preds = %72, %61
  br label %76

76:                                               ; preds = %75
  %77 = load i32, i32* %4, align 4
  %78 = add nsw i32 %77, 1
  store i32 %78, i32* %4, align 4
  br label %46

79:                                               ; preds = %46
  br label %80

80:                                               ; preds = %79
  %81 = load i32, i32* %3, align 4
  %82 = add nsw i32 %81, 1
  store i32 %82, i32* %3, align 4
  br label %38

83:                                               ; preds = %38
  %84 = load i32, i32* %5, align 4
  %85 = call i32 (i8*, ...) @printf(i8* getelementptr inbounds ([4 x i8], [4 x i8]* @.str.1, i64 0, i64 0), i32 %84)
  br label %86

86:                                               ; preds = %83
  %87 = load i32, i32* %7, align 4
  %88 = add nsw i32 %87, 1
  store i32 %88, i32* %7, align 4
  br label %8

89:                                               ; preds = %17, %8
  ret i32 0
}

declare dso_local i32 @__isoc99_scanf(i8*, ...) #1

declare dso_local i32 @printf(i8*, ...) #1


!llvm.module.flags = !{!0}
!llvm.ident = !{!1}

!0 = !{i32 1, !"wchar_size", i32 4}
!1 = !{!"clang version 10.0.0-4ubuntu1 "}
